target datalayout = "e-m:e-p270:32:32-p271:32:32-p272:64:64-i64:64-i128:128-f80:128-n8:16:32:64-S128"
target triple = "x86_64-pc-linux-gnu"

%struct.pm_constant_id_list_t = type { i64, i64, ptr }

; Function Attrs: nounwind sspstrong uwtable
define hidden void @pm_constant_id_list_init_capacity(ptr noundef %0, i64 noundef %1) #0 {
  %3 = alloca ptr, align 8
  %4 = alloca i64, align 8
  store ptr %0, ptr %3, align 8, !tbaa !7
  store i64 %1, ptr %4, align 8, !tbaa !17
  %5 = load i64, ptr %4, align 8, !tbaa !17
  %6 = icmp ne i64 %5, 0
  br i1 %6, label %7, label %18

7:                                                ; preds = %2
  %8 = load i64, ptr %4, align 8, !tbaa !17
  %9 = call noalias ptr @calloc(i64 noundef %8, i64 noundef 4) #11
  %10 = load ptr, ptr %3, align 8, !tbaa !7
  %11 = getelementptr inbounds nuw %struct.pm_constant_id_list_t, ptr %10, i32 0, i32 2
  store ptr %9, ptr %11, align 8, !tbaa !11
  %12 = load ptr, ptr %3, align 8, !tbaa !7
  %13 = getelementptr inbounds nuw %struct.pm_constant_id_list_t, ptr %12, i32 0, i32 2
  %14 = load ptr, ptr %13, align 8, !tbaa !11
  %15 = icmp eq ptr %14, null
  br i1 %15, label %16, label %17

16:                                               ; preds = %7
  call void @abort() #12
  unreachable

17:                                               ; preds = %7
  br label %21

18:                                               ; preds = %2
  %19 = load ptr, ptr %3, align 8, !tbaa !7
  %20 = getelementptr inbounds nuw %struct.pm_constant_id_list_t, ptr %19, i32 0, i32 2
  store ptr null, ptr %20, align 8, !tbaa !11
  br label %21

21:                                               ; preds = %18, %17
  %22 = load ptr, ptr %3, align 8, !tbaa !7
  %23 = getelementptr inbounds nuw %struct.pm_constant_id_list_t, ptr %22, i32 0, i32 0
  store i64 0, ptr %23, align 8, !tbaa !15
  %24 = load i64, ptr %4, align 8, !tbaa !17
  %25 = load ptr, ptr %3, align 8, !tbaa !7
  %26 = getelementptr inbounds nuw %struct.pm_constant_id_list_t, ptr %25, i32 0, i32 1
  store i64 %24, ptr %26, align 8, !tbaa !16
  ret void
}