; Function Attrs: nofree nounwind sspstrong uwtable
define hidden void @pm_constant_id_list_init_capacity(ptr noundef writeonly captures(none) initializes((16, 24)) %0, i64 noundef %1) local_unnamed_addr #1 {
  %.not = icmp eq i64 %1, 0
  br i1 %.not, label %8, label %3

3:                                                ; preds = %2
  %4 = tail call noalias ptr @calloc(i64 noundef %1, i64 noundef 4) #17
  %5 = getelementptr inbounds nuw i8, ptr %0, i64 16
  store ptr %4, ptr %5, align 8, !tbaa !7
  %6 = icmp eq ptr %4, null
  br i1 %6, label %7, label %10

7:                                                ; preds = %3
  tail call void @abort() #18
  unreachable

8:                                                ; preds = %2
  %9 = getelementptr inbounds nuw i8, ptr %0, i64 16
  store ptr null, ptr %9, align 8, !tbaa !7
  br label %10

10:                                               ; preds = %3, %8
  store i64 0, ptr %0, align 8, !tbaa !14
  %11 = getelementptr inbounds nuw i8, ptr %0, i64 8
  store i64 %1, ptr %11, align 8, !tbaa !15
  ret void
}